target datalayout = "e-m:e-p270:32:32-p271:32:32-p272:64:64-i64:64-i128:128-f80:128-n8:16:32:64-S128"
target triple = "x86_64-pc-linux-gnu"

%struct.AVFormatContext = type { ptr, ptr, ptr, ptr, ptr, i32, i32, ptr, i32, ptr, i32, ptr, ptr, i64, i64, i64, i32, i32, i32, i64, i64, ptr, i32, i32, ptr, i32, i32, i32, i32, ptr, i64, i32, i32, %struct.AVIOInterruptCB, i32, i32, i32, i32, i64, i32, i32, i32, i32, i32, i32, i32, i32, i32, i32, i32, i32, i64, i32, i32, i32, i32, i32, ptr, ptr, ptr, ptr, i32, ptr, ptr, ptr, ptr, i32, ptr, ptr, i64, ptr, ptr, ptr, i64 }
%struct.AVIOInterruptCB = type { ptr, ptr }
%struct.AVStream = type { ptr, i32, i32, ptr, ptr, %struct.AVRational, i64, i64, i64, i32, i32, %struct.AVRational, ptr, %struct.AVRational, %struct.AVPacket, i32, %struct.AVRational, i32 }
%struct.AVPacket = type { ptr, i64, i64, ptr, i32, i32, i32, ptr, i32, i64, i64, ptr, ptr, %struct.AVRational }
%struct.AVRational = type { i32, i32 }
%struct.AVCodecParameters = type { i32, i32, i32, ptr, i32, ptr, i32, i32, i64, i32, i32, i32, i32, i32, i32, %struct.AVRational, %struct.AVRational, i32, i32, i32, i32, i32, i32, i32, %struct.AVChannelLayout, i32, i32, i32, i32, i32, i32 }
%struct.AVChannelLayout = type { i32, i32, %union.anon, ptr }
%union.anon = type { i64 }
%struct.MCADemuxContext = type { i32, i16, i32, i32, i32 }

; Function Attrs: nounwind uwtable
define internal i32 @read_packet(ptr noundef %0, ptr noundef %1) #0 {
  %3 = alloca i32, align 4
  %4 = alloca ptr, align 8
  %5 = alloca ptr, align 8
  %6 = alloca ptr, align 8
  %7 = alloca ptr, align 8
  %8 = alloca i16, align 2
  %9 = alloca i32, align 4
  %10 = alloca i32, align 4
  %11 = alloca i32, align 4
  store ptr %0, ptr %4, align 8, !tbaa !14
  store ptr %1, ptr %5, align 8, !tbaa !64
  call void @llvm.lifetime.start.p0(i64 8, ptr %6) #4
  %12 = load ptr, ptr %4, align 8, !tbaa !14
  %13 = getelementptr inbounds nuw %struct.AVFormatContext, ptr %12, i32 0, i32 7
  %14 = load ptr, ptr %13, align 8, !tbaa !66
  %15 = getelementptr inbounds ptr, ptr %14, i64 0
  %16 = load ptr, ptr %15, align 8, !tbaa !38
  %17 = getelementptr inbounds nuw %struct.AVStream, ptr %16, i32 0, i32 3
  %18 = load ptr, ptr %17, align 8, !tbaa !40
  store ptr %18, ptr %6, align 8, !tbaa !47
  call void @llvm.lifetime.start.p0(i64 8, ptr %7) #4
  %19 = load ptr, ptr %4, align 8, !tbaa !14
  %20 = getelementptr inbounds nuw %struct.AVFormatContext, ptr %19, i32 0, i32 3
  %21 = load ptr, ptr %20, align 8, !tbaa !16
  store ptr %21, ptr %7, align 8, !tbaa !31
  call void @llvm.lifetime.start.p0(i64 2, ptr %8) #4
  %22 = load ptr, ptr %7, align 8, !tbaa !31
  %23 = getelementptr inbounds nuw %struct.MCADemuxContext, ptr %22, i32 0, i32 1
  %24 = load i16, ptr %23, align 4, !tbaa !52
  store i16 %24, ptr %8, align 2, !tbaa !35
  call void @llvm.lifetime.start.p0(i64 4, ptr %9) #4
  %25 = load ptr, ptr %7, align 8, !tbaa !31
  %26 = getelementptr inbounds nuw %struct.MCADemuxContext, ptr %25, i32 0, i32 4
  %27 = load i32, ptr %26, align 4, !tbaa !55
  store i32 %27, ptr %9, align 4, !tbaa !37
  call void @llvm.lifetime.start.p0(i64 4, ptr %10) #4
  store i32 0, ptr %10, align 4, !tbaa !37
  %28 = load ptr, ptr %4, align 8, !tbaa !14
  %29 = getelementptr inbounds nuw %struct.AVFormatContext, ptr %28, i32 0, i32 4
  %30 = load ptr, ptr %29, align 8, !tbaa !33
  %31 = call i32 @avio_feof(ptr noundef %30)
  %32 = icmp ne i32 %31, 0
  br i1 %32, label %33, label %34

33:                                               ; preds = %2
  store i32 -541478725, ptr %3, align 4
  store i32 1, ptr %11, align 4
  br label %70

34:                                               ; preds = %2
  %35 = load ptr, ptr %7, align 8, !tbaa !31
  %36 = getelementptr inbounds nuw %struct.MCADemuxContext, ptr %35, i32 0, i32 2
  %37 = load i32, ptr %36, align 4, !tbaa !67
  %38 = add i32 %37, 1
  store i32 %38, ptr %36, align 4, !tbaa !67
  %39 = load ptr, ptr %7, align 8, !tbaa !31
  %40 = getelementptr inbounds nuw %struct.MCADemuxContext, ptr %39, i32 0, i32 2
  %41 = load i32, ptr %40, align 4, !tbaa !67
  %42 = load ptr, ptr %7, align 8, !tbaa !31
  %43 = getelementptr inbounds nuw %struct.MCADemuxContext, ptr %42, i32 0, i32 0
  %44 = load i32, ptr %43, align 4, !tbaa !56
  %45 = icmp ugt i32 %41, %44
  br i1 %45, label %46, label %47

46:                                               ; preds = %34
  store i32 -541478725, ptr %3, align 4
  store i32 1, ptr %11, align 4
  br label %70

47:                                               ; preds = %34
  %48 = load ptr, ptr %4, align 8, !tbaa !14
  %49 = getelementptr inbounds nuw %struct.AVFormatContext, ptr %48, i32 0, i32 4
  %50 = load ptr, ptr %49, align 8, !tbaa !33
  %51 = load ptr, ptr %5, align 8, !tbaa !64
  %52 = load i16, ptr %8, align 2, !tbaa !35
  %53 = zext i16 %52 to i32
  %54 = load ptr, ptr %6, align 8, !tbaa !47
  %55 = getelementptr inbounds nuw %struct.AVCodecParameters, ptr %54, i32 0, i32 24
  %56 = getelementptr inbounds nuw %struct.AVChannelLayout, ptr %55, i32 0, i32 1
  %57 = load i32, ptr %56, align 4, !tbaa !51
  %58 = mul nsw i32 %53, %57
  %59 = call i32 @av_get_packet(ptr noundef %50, ptr noundef %51, i32 noundef %58)
  store i32 %59, ptr %10, align 4, !tbaa !37
  %60 = icmp slt i32 %59, 0
  br i1 %60, label %61, label %63

61:                                               ; preds = %47
  %62 = load i32, ptr %10, align 4, !tbaa !37
  store i32 %62, ptr %3, align 4
  store i32 1, ptr %11, align 4
  br label %70

63:                                               ; preds = %47
  %64 = load i32, ptr %9, align 4, !tbaa !37
  %65 = zext i32 %64 to i64
  %66 = load ptr, ptr %5, align 8, !tbaa !64
  %67 = getelementptr inbounds nuw %struct.AVPacket, ptr %66, i32 0, i32 9
  store i64 %65, ptr %67, align 8, !tbaa !68
  %68 = load ptr, ptr %5, align 8, !tbaa !64
  %69 = getelementptr inbounds nuw %struct.AVPacket, ptr %68, i32 0, i32 5
  store i32 0, ptr %69, align 4, !tbaa !69
  store i32 0, ptr %3, align 4
  store i32 1, ptr %11, align 4
  br label %70

70:                                               ; preds = %63, %61, %46, %33
  call void @llvm.lifetime.end.p0(i64 4, ptr %10) #4
  call void @llvm.lifetime.end.p0(i64 4, ptr %9) #4
  call void @llvm.lifetime.end.p0(i64 2, ptr %8) #4
  call void @llvm.lifetime.end.p0(i64 8, ptr %7) #4
  call void @llvm.lifetime.end.p0(i64 8, ptr %6) #4
  %71 = load i32, ptr %3, align 4
  ret i32 %71
}