; Function Attrs: nounwind uwtable
define internal range(i32 -2147483648, 1) i32 @read_packet(ptr noundef readonly captures(none) %0, ptr noundef %1) #1 {
  %3 = getelementptr inbounds nuw i8, ptr %0, i64 48
  %4 = load ptr, ptr %3, align 8, !tbaa !52
  %5 = load ptr, ptr %4, align 8, !tbaa !53
  %6 = getelementptr inbounds nuw i8, ptr %5, i64 16
  %7 = load ptr, ptr %6, align 8, !tbaa !28
  %8 = getelementptr inbounds nuw i8, ptr %0, i64 24
  %9 = load ptr, ptr %8, align 8, !tbaa !12
  %10 = getelementptr inbounds nuw i8, ptr %9, i64 4
  %11 = load i16, ptr %10, align 4, !tbaa !39
  %12 = getelementptr inbounds nuw i8, ptr %9, i64 16
  %13 = load i32, ptr %12, align 4, !tbaa !43
  %14 = getelementptr inbounds nuw i8, ptr %0, i64 32
  %15 = load ptr, ptr %14, align 8, !tbaa !27
  %16 = tail call i32 @avio_feof(ptr noundef %15) #5
  %.not = icmp eq i32 %16, 0
  br i1 %.not, label %17, label %35

17:                                               ; preds = %2
  %18 = getelementptr inbounds nuw i8, ptr %9, i64 8
  %19 = load i32, ptr %18, align 4, !tbaa !55
  %20 = add i32 %19, 1
  store i32 %20, ptr %18, align 4, !tbaa !55
  %21 = load i32, ptr %9, align 4, !tbaa !44
  %22 = icmp ugt i32 %20, %21
  br i1 %22, label %35, label %23

23:                                               ; preds = %17
  %24 = load ptr, ptr %14, align 8, !tbaa !27
  %25 = zext i16 %11 to i32
  %26 = getelementptr inbounds nuw i8, ptr %7, i64 132
  %27 = load i32, ptr %26, align 4, !tbaa !38
  %28 = mul nsw i32 %27, %25
  %29 = tail call i32 @av_get_packet(ptr noundef %24, ptr noundef %1, i32 noundef %28) #5
  %30 = icmp slt i32 %29, 0
  br i1 %30, label %35, label %31

31:                                               ; preds = %23
  %32 = zext i32 %13 to i64
  %33 = getelementptr inbounds nuw i8, ptr %1, i64 64
  store i64 %32, ptr %33, align 8, !tbaa !56
  %34 = getelementptr inbounds nuw i8, ptr %1, i64 36
  store i32 0, ptr %34, align 4, !tbaa !57
  br label %35

35:                                               ; preds = %23, %17, %2, %31
  %.0 = phi i32 [ 0, %31 ], [ -541478725, %2 ], [ -541478725, %17 ], [ %29, %23 ]
  ret i32 %.0
}